; Function Attrs: mustprogress uwtable
define void @_ZN2cv2ml9ParamGridC2Eddd(ptr noundef nonnull writeonly align 8 captures(none) dereferenceable(24) initializes((0, 24)) %0, double noundef %1, double noundef %2, double noundef %3) unnamed_addr #4 align 2 personality ptr @__gxx_personality_v0 {
  %5 = alloca %"class.cv::utils::trace::details::Region", align 8
  call void @llvm.lifetime.start.p0(i64 16, ptr nonnull %5) #25
  call void @_ZN2cv5utils5trace7details6RegionC1ERKNS3_21LocationStaticStorageE(ptr noundef nonnull align 8 dereferenceable(12) %5, ptr noundef nonnull align 8 dereferenceable(32) @_ZZN2cv2ml9ParamGridC1EdddE24__cv_trace_location_fn48)
  %6 = fcmp olt double %2, %1
  %.sroa.speculated8 = select i1 %6, double %2, double %1
  store double %.sroa.speculated8, ptr %0, align 8, !tbaa !8
  %7 = fcmp olt double %1, %2
  %.sroa.speculated5 = select i1 %7, double %2, double %1
  %8 = getelementptr inbounds nuw i8, ptr %0, i64 8
  store double %.sroa.speculated5, ptr %8, align 8, !tbaa !9
  %9 = fcmp olt double %3, 1.000000e+00
  %.sroa.speculated = select i1 %9, double 1.000000e+00, double %3
  %10 = getelementptr inbounds nuw i8, ptr %0, i64 16
  store double %.sroa.speculated, ptr %10, align 8, !tbaa !3
  %11 = getelementptr inbounds nuw i8, ptr %5, i64 8
  %12 = load i32, ptr %11, align 8, !tbaa !10
  %.not.i = icmp eq i32 %12, 0
  br i1 %.not.i, label %_ZN2cv5utils5trace7details6RegionD2Ev.exit, label %13

13:                                               ; preds = %4
  invoke void @_ZN2cv5utils5trace7details6Region7destroyEv(ptr noundef nonnull align 8 dereferenceable(12) %5)
          to label %_ZN2cv5utils5trace7details6RegionD2Ev.exit unwind label %14

14:                                               ; preds = %13
  %15 = landingpad { ptr, i32 }
          catch ptr null
  %16 = extractvalue { ptr, i32 } %15, 0
  call void @__clang_call_terminate(ptr %16) #26
  unreachable

_ZN2cv5utils5trace7details6RegionD2Ev.exit:       ; preds = %4, %13
  call void @llvm.lifetime.end.p0(i64 16, ptr nonnull %5) #25
  ret void
}